; Function Attrs: mustprogress nounwind uwtable
define hidden noundef ptr @_ZN5JVMCI16compiler_runtimeEP10JavaThreadb(ptr noundef %0, i1 noundef zeroext %1) local_unnamed_addr #0 align 2 {
  %3 = getelementptr inbounds i8, ptr %0, i64 1176
  %4 = load ptr, ptr %3, align 8
  %5 = icmp eq ptr %4, null
  %brmerge.not = and i1 %5, %1
  br i1 %brmerge.not, label %6, label %8

6:                                                ; preds = %2
  %7 = tail call noundef ptr @_ZN12JVMCIRuntime10for_threadEP10JavaThread(ptr noundef nonnull %0) #13
  br label %8

8:                                                ; preds = %2, %6
  %.0 = phi ptr [ %7, %6 ], [ %4, %2 ]
  ret ptr %.0
}